target datalayout = "e-m:e-p270:32:32-p271:32:32-p272:64:64-i64:64-i128:128-f80:128-n8:16:32:64-S128"
target triple = "x86_64-pc-linux-gnu"

%struct.aofInfo = type { ptr, i64, i32, i64, i64 }

@.str = private unnamed_addr constant [11 x i8] c"ai != NULL\00", align 1
@.str.1 = private unnamed_addr constant [6 x i8] c"aof.c\00", align 1

; Function Attrs: nounwind uwtable
define dso_local void @aofInfoFree(ptr noundef %0) #0 {
  %2 = alloca ptr, align 8
  store ptr %0, ptr %2, align 8, !tbaa !5
  %3 = load ptr, ptr %2, align 8, !tbaa !5
  %4 = icmp ne ptr %3, null
  %5 = xor i1 %4, true
  %6 = xor i1 %5, true
  %7 = zext i1 %6 to i32
  %8 = sext i32 %7 to i64
  %9 = call i64 @llvm.expect.i64(i64 %8, i64 1)
  %10 = icmp ne i64 %9, 0
  br i1 %10, label %11, label %12

11:                                               ; preds = %1
  br label %14

12:                                               ; preds = %1
  call void @_serverAssert(ptr noundef @.str, ptr noundef @.str.1, i32 noundef 96)
  call void @abort() #14
  unreachable

13:                                               ; No predecessors!
  br label %14

14:                                               ; preds = %13, %11
  %15 = load ptr, ptr %2, align 8, !tbaa !5
  %16 = getelementptr inbounds nuw %struct.aofInfo, ptr %15, i32 0, i32 0
  %17 = load ptr, ptr %16, align 8, !tbaa !15
  %18 = icmp ne ptr %17, null
  br i1 %18, label %19, label %23

19:                                               ; preds = %14
  %20 = load ptr, ptr %2, align 8, !tbaa !5
  %21 = getelementptr inbounds nuw %struct.aofInfo, ptr %20, i32 0, i32 0
  %22 = load ptr, ptr %21, align 8, !tbaa !15
  call void @sdsfree(ptr noundef %22)
  br label %23

23:                                               ; preds = %19, %14
  %24 = load ptr, ptr %2, align 8, !tbaa !5
  call void @zfree(ptr noundef %24)
  ret void
}