; Function Attrs: nounwind uwtable
define dso_local void @aofInfoFree(ptr noundef %0) local_unnamed_addr #0 {
  %.not = icmp eq ptr %0, null
  br i1 %.not, label %2, label %3, !prof !5

2:                                                ; preds = %1
  tail call void @_serverAssert(ptr noundef nonnull @.str, ptr noundef nonnull @.str.1, i32 noundef 96) #20
  tail call void @abort() #21
  unreachable

3:                                                ; preds = %1
  %4 = load ptr, ptr %0, align 8, !tbaa !6
  %.not5 = icmp eq ptr %4, null
  br i1 %.not5, label %6, label %5

5:                                                ; preds = %3
  tail call void @sdsfree(ptr noundef nonnull %4) #20
  br label %6

6:                                                ; preds = %5, %3
  tail call void @zfree(ptr noundef nonnull %0) #20
  ret void
}